ccopy_reg
_reconstructor
p0
(csklearn.linear_model.base
LinearRegression
p1
c__builtin__
object
p2
Ntp3
Rp4
(dp5
S'normalize'
p6
I00
sS'n_jobs'
p7
I1
sS'fit_intercept'
p8
I01
sS'_residues'
p9
F178.86706333539746
sS'coef_'
p10
cnumpy.core.multiarray
_reconstruct
p11
(cnumpy
ndarray
p12
(I0
tp13
S'b'
p14
tp15
Rp16
(I1
(I5
tp17
cnumpy
dtype
p18
(S'f8'
p19
I0
I1
tp20
Rp21
(I3
S'<'
p22
NNNI-1
I-1
I0
tp23
bI00
S'\xa2\xc5\xa8Kc\xb3\xbe\xbf\x90\xd6\xeb\xd1C\xac\x85\xbfjVn\xa2\xd4k\xd4?\x07\x83\xcd\x95\xd2\xe4\xc1\xbfn\xe1<"\xb1\x7f\x96\xbf'
p24
tp25
bsS'copy_X'
p26
I01
sS'intercept_'
p27
cnumpy.core.multiarray
scalar
p28
(g21
S'p\xce\x88\xd2\xde\xe0\r@'
p29
tp30
Rp31
sb.