ccopy_reg
_reconstructor
p0
(csklearn.linear_model.base
LinearRegression
p1
c__builtin__
object
p2
Ntp3
Rp4
(dp5
S'normalize'
p6
I00
sS'n_jobs'
p7
I1
sS'fit_intercept'
p8
I01
sS'_residues'
p9
F490.4951326409185
sS'coef_'
p10
cnumpy.core.multiarray
_reconstruct
p11
(cnumpy
ndarray
p12
(I0
tp13
S'b'
p14
tp15
Rp16
(I1
(I5
tp17
cnumpy
dtype
p18
(S'f8'
p19
I0
I1
tp20
Rp21
(I3
S'<'
p22
NNNI-1
I-1
I0
tp23
bI00
S'e\xe1\xd4\xd9\xdc\x83\xc1\xbfv6\xd4\xeet\xc8|?E\x07X-\x04q\xd4?\xc4\x05\x90O\xd7\xcc\xc0\xbf\xfa"\x87\x01kW\x93\xbf'
p24
tp25
bsS'copy_X'
p26
I01
sS'intercept_'
p27
cnumpy.core.multiarray
scalar
p28
(g21
S'\x99?\xb9\x80\xaa\xe4\r@'
p29
tp30
Rp31
sb.