ccopy_reg
_reconstructor
p0
(csklearn.feature_extraction.text
CountVectorizer
p1
c__builtin__
object
p2
Ntp3
Rp4
(dp5
S'decode_error'
p6
Vstrict
p7
sS'lowercase'
p8
I01
sS'stop_words'
p9
NsS'vocabulary'
p10
NsS'tokenizer'
p11
NsS'encoding'
p12
Vutf-8
p13
sS'token_pattern'
p14
V(?u)\u005cb\u005cw\u005cw+\u005cb
p15
sS'max_df'
p16
F0.7
sS'analyzer'
p17
Vword
p18
sS'binary'
p19
I00
sS'ngram_range'
p20
(I1
I1
tp21
sS'preprocessor'
p22
NsS'min_df'
p23
F0.001
sS'max_features'
p24
NsS'input'
p25
Vcontent
p26
sS'dtype'
p27
cnumpy
int64
p28
sS'strip_accents'
p29
Nsb.