ccopy_reg
_reconstructor
p0
(csklearn.feature_extraction.text
HashingVectorizer
p1
c__builtin__
object
p2
Ntp3
Rp4
(dp5
S'decode_error'
p6
S'ignore'
p7
sS'lowercase'
p8
I01
sS'stop_words'
p9
NsS'tokenizer'
p10
NsS'encoding'
p11
Vutf-8
p12
sS'token_pattern'
p13
V(?u)\u005cb\u005cw\u005cw+\u005cb
p14
sS'analyzer'
p15
Vword
p16
sS'binary'
p17
I00
sS'ngram_range'
p18
(I1
I1
tp19
sS'preprocessor'
p20
NsS'dtype'
p21
cnumpy
float64
p22
sS'input'
p23
Vcontent
p24
sS'n_features'
p25
I262144
sS'non_negative'
p26
I01
sS'norm'
p27
Vl2
p28
sS'strip_accents'
p29
Nsb.